target datalayout = "e-m:e-p270:32:32-p271:32:32-p272:64:64-i64:64-i128:128-f80:128-n8:16:32:64-S128"
target triple = "x86_64-pc-linux-gnu"

%class.symbol = type { ptr }
%class.arith_decl_plugin = type <{ %class.decl_plugin.base, [4 x i8], ptr, %class.symbol, %class.symbol, %class.symbol, ptr, ptr, ptr, ptr, ptr, ptr, ptr, ptr, ptr, ptr, ptr, ptr, ptr, ptr, ptr, ptr, ptr, ptr, ptr, ptr, ptr, ptr, ptr, ptr, ptr, ptr, ptr, ptr, ptr, ptr, ptr, ptr, ptr, ptr, ptr, ptr, ptr, ptr, ptr, ptr, ptr, ptr, ptr, ptr, ptr, ptr, %class.ptr_vector, %class.ptr_vector, i8, [7 x i8] }>
%class.decl_plugin.base = type <{ ptr, ptr, i32 }>
%class.ptr_vector = type { %class.vector }
%class.vector = type { ptr }

; Function Attrs: mustprogress nounwind uwtable
define hidden noundef ptr @_ZN17arith_decl_plugin7mk_sortEijPK9parameter(ptr noundef nonnull align 8 dereferenceable(441) %0, i32 noundef %1, i32 noundef %2, ptr noundef %3) unnamed_addr #5 align 2 {
  %5 = alloca ptr, align 8
  %6 = alloca ptr, align 8
  %7 = alloca i32, align 4
  %8 = alloca i32, align 4
  %9 = alloca ptr, align 8
  store ptr %0, ptr %6, align 8, !tbaa !3
  store i32 %1, ptr %7, align 4, !tbaa !36
  store i32 %2, ptr %8, align 4, !tbaa !36
  store ptr %3, ptr %9, align 8, !tbaa !47
  %10 = load ptr, ptr %6, align 8
  %11 = load i32, ptr %7, align 4, !tbaa !36
  switch i32 %11, label %18 [
    i32 0, label %12
    i32 1, label %15
  ]

12:                                               ; preds = %4
  %13 = getelementptr inbounds nuw %class.arith_decl_plugin, ptr %10, i32 0, i32 6
  %14 = load ptr, ptr %13, align 8, !tbaa !37
  store ptr %14, ptr %5, align 8
  br label %19

15:                                               ; preds = %4
  %16 = getelementptr inbounds nuw %class.arith_decl_plugin, ptr %10, i32 0, i32 7
  %17 = load ptr, ptr %16, align 8, !tbaa !44
  store ptr %17, ptr %5, align 8
  br label %19

18:                                               ; preds = %4
  store ptr null, ptr %5, align 8
  br label %19

19:                                               ; preds = %18, %15, %12
  %20 = load ptr, ptr %5, align 8
  ret ptr %20
}