; Function Attrs: mustprogress nofree norecurse nosync nounwind willreturn memory(argmem: read) uwtable
define hidden noundef ptr @_ZN17arith_decl_plugin7mk_sortEijPK9parameter(ptr noundef nonnull readonly align 8 captures(none) dereferenceable(441) %0, i32 noundef %1, i32 %2, ptr readnone captures(none) %3) unnamed_addr #11 align 2 {
  switch i32 %1, label %11 [
    i32 0, label %5
    i32 1, label %8
  ]

5:                                                ; preds = %4
  %6 = getelementptr inbounds nuw i8, ptr %0, i64 56
  %7 = load ptr, ptr %6, align 8, !tbaa !52
  br label %11

8:                                                ; preds = %4
  %9 = getelementptr inbounds nuw i8, ptr %0, i64 64
  %10 = load ptr, ptr %9, align 8, !tbaa !127
  br label %11

11:                                               ; preds = %4, %8, %5
  %.0 = phi ptr [ %10, %8 ], [ %7, %5 ], [ null, %4 ]
  ret ptr %.0
}